target datalayout = "e-m:e-p270:32:32-p271:32:32-p272:64:64-i64:64-i128:128-f80:128-n8:16:32:64-S128"
target triple = "x86_64-pc-linux-gnu"

%struct.AVChannelLayout = type { i32, i32, %union.anon.2, ptr }
%union.anon.2 = type { i64 }
%struct.AACDecContext = type { ptr, ptr, %struct.AACDecDSP, %struct.AACDecProc, ptr, i32, %struct.DynamicRangeControl, [4 x [64 x ptr]], [4 x [64 x ptr]], i32, i32, [8 x i8], %union.anon, %union.anon.0, ptr, ptr, ptr, ptr, ptr, ptr, ptr, ptr, ptr, ptr, ptr, ptr, ptr, ptr, ptr, ptr, ptr, ptr, %union.anon.1, i32, [64 x ptr], i32, i32, i32, [2 x %struct.OutputConfiguration], i32, i32, i32, i32, i32, i32, [8 x i8] }
%struct.AACDecDSP = type { ptr, ptr, ptr, ptr, ptr, ptr, ptr, ptr, ptr, ptr, ptr, ptr, ptr, ptr, ptr }
%struct.AACDecProc = type { ptr, ptr, ptr, ptr, ptr, ptr }
%struct.DynamicRangeControl = type { i32, [17 x i32], [17 x i32], [64 x i32], i32, i32, [17 x i32], i32 }
%union.anon = type { [1024 x i32] }
%union.anon.0 = type { [128 x i32] }
%union.anon.1 = type { ptr }
%struct.OutputConfiguration = type { %struct.MPEG4AudioConfig, [256 x [3 x i8]], i32, %struct.AVChannelLayout, i32, %struct.AACUSACConfig }
%struct.MPEG4AudioConfig = type { i32, i32, i32, i32, i32, i32, i32, i32, i32, i32, i32, i32 }
%struct.AACUSACConfig = type { i8, i16, i16, [64 x %struct.AACUsacElemConfig], i32, %struct.anon.6 }
%struct.AACUsacElemConfig = type { i32, i8, i8, %struct.anon, %struct.anon.4, %struct.anon.5 }
%struct.anon = type { i32, i8, %struct.anon.3 }
%struct.anon.3 = type { i8, i8, i8, i8, i8, i8, i8, i8 }
%struct.anon.4 = type { i8, i8, i8, i8, i8, i8, i8, i8, i8 }
%struct.anon.5 = type { i32, i8, i32, i32, ptr }
%struct.anon.6 = type { i8, i8, [64 x %struct.AACUSACLoudnessInfo], i8, i8, [64 x %struct.AACUSACLoudnessInfo] }
%struct.AACUSACLoudnessInfo = type <{ i16, %struct.anon.7, %struct.anon.8, i8, [16 x %struct.anon.9], i8 }>
%struct.anon.7 = type { i16 }
%struct.anon.8 = type { i32 }
%struct.anon.9 = type { i8, i8, i8 }
%struct.AVCodecContext = type { ptr, i32, i32, ptr, i32, i32, ptr, ptr, ptr, i64, i32, i32, ptr, i32, %struct.AVRational, %struct.AVRational, %struct.AVRational, i32, i32, i32, i32, i32, %struct.AVRational, i32, i32, i32, i32, i32, i32, i32, i32, i32, i32, i32, ptr, ptr, i32, float, float, float, float, float, float, float, float, float, i32, i32, i32, i32, i32, i32, i32, i32, i32, i32, i32, i32, ptr, ptr, ptr, i32, i32, i32, i32, i32, i32, i32, i32, i32, i32, %struct.AVChannelLayout, i32, i32, i32, i32, i32, i32, i32, i32, ptr, i32, i32, i32, float, float, i32, i32, i32, i32, i32, ptr, i64, i64, float, float, i32, i32, ptr, ptr, i32, i32, i32, i32, i32, ptr, ptr, ptr, ptr, i32, i32, [8 x i64], i32, i32, i32, i32, i32, i32, i32, ptr, ptr, i32, i32, i32, i32, i32, i32, i32, i32, i32, i32, ptr, ptr, i32, i32, ptr, ptr, ptr, ptr, i32, i32, i64, i32, i32, i64, ptr, i64, ptr, i32, ptr, i32 }
%struct.AVRational = type { i32, i32 }

; Function Attrs: cold nounwind optsize uwtable
define internal i32 @decode_close(ptr noundef %0) #5 {
  %2 = alloca ptr, align 8
  %3 = alloca ptr, align 8
  %4 = alloca i32, align 4
  %5 = alloca i32, align 4
  %6 = alloca ptr, align 8
  %7 = alloca ptr, align 8
  %8 = alloca i32, align 4
  %9 = alloca ptr, align 8
  %10 = alloca i32, align 4
  %11 = alloca i32, align 4
  store ptr %0, ptr %2, align 8, !tbaa !22
  call void @llvm.lifetime.start.p0(i64 8, ptr %3) #12
  %12 = load ptr, ptr %2, align 8, !tbaa !22
  %13 = getelementptr inbounds nuw %struct.AVCodecContext, ptr %12, i32 0, i32 6
  %14 = load ptr, ptr %13, align 8, !tbaa !59
  store ptr %14, ptr %3, align 8, !tbaa !4
  call void @llvm.lifetime.start.p0(i64 4, ptr %4) #12
  store i32 0, ptr %4, align 4, !tbaa !11
  br label %15

15:                                               ; preds = %53, %1
  %16 = load i32, ptr %4, align 4, !tbaa !11
  %17 = icmp slt i32 %16, 2
  br i1 %17, label %19, label %18

18:                                               ; preds = %15
  store i32 2, ptr %5, align 4
  call void @llvm.lifetime.end.p0(i64 4, ptr %4) #12
  br label %56

19:                                               ; preds = %15
  call void @llvm.lifetime.start.p0(i64 8, ptr %6) #12
  %20 = load ptr, ptr %3, align 8, !tbaa !4
  %21 = getelementptr inbounds nuw %struct.AACDecContext, ptr %20, i32 0, i32 38
  %22 = load i32, ptr %4, align 4, !tbaa !11
  %23 = sext i32 %22 to i64
  %24 = getelementptr inbounds [2 x %struct.OutputConfiguration], ptr %21, i64 0, i64 %23
  store ptr %24, ptr %6, align 8, !tbaa !102
  call void @llvm.lifetime.start.p0(i64 8, ptr %7) #12
  %25 = load ptr, ptr %6, align 8, !tbaa !102
  %26 = getelementptr inbounds nuw %struct.OutputConfiguration, ptr %25, i32 0, i32 5
  store ptr %26, ptr %7, align 8, !tbaa !173
  call void @llvm.lifetime.start.p0(i64 4, ptr %8) #12
  store i32 0, ptr %8, align 4, !tbaa !11
  br label %27

27:                                               ; preds = %43, %19
  %28 = load i32, ptr %8, align 4, !tbaa !11
  %29 = load ptr, ptr %7, align 8, !tbaa !173
  %30 = getelementptr inbounds nuw %struct.AACUSACConfig, ptr %29, i32 0, i32 4
  %31 = load i32, ptr %30, align 8, !tbaa !175
  %32 = icmp slt i32 %28, %31
  br i1 %32, label %34, label %33

33:                                               ; preds = %27
  store i32 5, ptr %5, align 4
  call void @llvm.lifetime.end.p0(i64 4, ptr %8) #12
  br label %46

34:                                               ; preds = %27
  call void @llvm.lifetime.start.p0(i64 8, ptr %9) #12
  %35 = load ptr, ptr %7, align 8, !tbaa !173
  %36 = getelementptr inbounds nuw %struct.AACUSACConfig, ptr %35, i32 0, i32 3
  %37 = load i32, ptr %8, align 4, !tbaa !11
  %38 = sext i32 %37 to i64
  %39 = getelementptr inbounds [64 x %struct.AACUsacElemConfig], ptr %36, i64 0, i64 %38
  store ptr %39, ptr %9, align 8, !tbaa !176
  %40 = load ptr, ptr %9, align 8, !tbaa !176
  %41 = getelementptr inbounds nuw %struct.AACUsacElemConfig, ptr %40, i32 0, i32 5
  %42 = getelementptr inbounds nuw %struct.anon.5, ptr %41, i32 0, i32 4
  call void @av_freep(ptr noundef %42)
  call void @llvm.lifetime.end.p0(i64 8, ptr %9) #12
  br label %43

43:                                               ; preds = %34
  %44 = load i32, ptr %8, align 4, !tbaa !11
  %45 = add nsw i32 %44, 1
  store i32 %45, ptr %8, align 4, !tbaa !11
  br label %27, !llvm.loop !178

46:                                               ; preds = %33
  %47 = load ptr, ptr %3, align 8, !tbaa !4
  %48 = getelementptr inbounds nuw %struct.AACDecContext, ptr %47, i32 0, i32 38
  %49 = load i32, ptr %4, align 4, !tbaa !11
  %50 = sext i32 %49 to i64
  %51 = getelementptr inbounds [2 x %struct.OutputConfiguration], ptr %48, i64 0, i64 %50
  %52 = getelementptr inbounds nuw %struct.OutputConfiguration, ptr %51, i32 0, i32 3
  call void @av_channel_layout_uninit(ptr noundef %52)
  call void @llvm.lifetime.end.p0(i64 8, ptr %7) #12
  call void @llvm.lifetime.end.p0(i64 8, ptr %6) #12
  br label %53

53:                                               ; preds = %46
  %54 = load i32, ptr %4, align 4, !tbaa !11
  %55 = add nsw i32 %54, 1
  store i32 %55, ptr %4, align 4, !tbaa !11
  br label %15, !llvm.loop !179

56:                                               ; preds = %18
  call void @llvm.lifetime.start.p0(i64 4, ptr %10) #12
  store i32 0, ptr %10, align 4, !tbaa !11
  br label %57

57:                                               ; preds = %105, %56
  %58 = load i32, ptr %10, align 4, !tbaa !11
  %59 = sext i32 %58 to i64
  %60 = icmp ult i64 %59, 4
  br i1 %60, label %62, label %61

61:                                               ; preds = %57
  store i32 8, ptr %5, align 4
  call void @llvm.lifetime.end.p0(i64 4, ptr %10) #12
  br label %108

62:                                               ; preds = %57
  call void @llvm.lifetime.start.p0(i64 4, ptr %11) #12
  store i32 0, ptr %11, align 4, !tbaa !11
  br label %63

63:                                               ; preds = %101, %62
  %64 = load i32, ptr %11, align 4, !tbaa !11
  %65 = icmp slt i32 %64, 64
  br i1 %65, label %67, label %66

66:                                               ; preds = %63
  store i32 11, ptr %5, align 4
  call void @llvm.lifetime.end.p0(i64 4, ptr %11) #12
  br label %104

67:                                               ; preds = %63
  %68 = load ptr, ptr %3, align 8, !tbaa !4
  %69 = getelementptr inbounds nuw %struct.AACDecContext, ptr %68, i32 0, i32 7
  %70 = load i32, ptr %10, align 4, !tbaa !11
  %71 = sext i32 %70 to i64
  %72 = getelementptr inbounds [4 x [64 x ptr]], ptr %69, i64 0, i64 %71
  %73 = load i32, ptr %11, align 4, !tbaa !11
  %74 = sext i32 %73 to i64
  %75 = getelementptr inbounds [64 x ptr], ptr %72, i64 0, i64 %74
  %76 = load ptr, ptr %75, align 8, !tbaa !36
  %77 = icmp ne ptr %76, null
  br i1 %77, label %78, label %100

78:                                               ; preds = %67
  %79 = load ptr, ptr %3, align 8, !tbaa !4
  %80 = getelementptr inbounds nuw %struct.AACDecContext, ptr %79, i32 0, i32 3
  %81 = getelementptr inbounds nuw %struct.AACDecProc, ptr %80, i32 0, i32 5
  %82 = load ptr, ptr %81, align 8, !tbaa !58
  %83 = load ptr, ptr %3, align 8, !tbaa !4
  %84 = getelementptr inbounds nuw %struct.AACDecContext, ptr %83, i32 0, i32 7
  %85 = load i32, ptr %10, align 4, !tbaa !11
  %86 = sext i32 %85 to i64
  %87 = getelementptr inbounds [4 x [64 x ptr]], ptr %84, i64 0, i64 %86
  %88 = load i32, ptr %11, align 4, !tbaa !11
  %89 = sext i32 %88 to i64
  %90 = getelementptr inbounds [64 x ptr], ptr %87, i64 0, i64 %89
  %91 = load ptr, ptr %90, align 8, !tbaa !36
  call void %82(ptr noundef %91)
  %92 = load ptr, ptr %3, align 8, !tbaa !4
  %93 = getelementptr inbounds nuw %struct.AACDecContext, ptr %92, i32 0, i32 7
  %94 = load i32, ptr %10, align 4, !tbaa !11
  %95 = sext i32 %94 to i64
  %96 = getelementptr inbounds [4 x [64 x ptr]], ptr %93, i64 0, i64 %95
  %97 = load i32, ptr %11, align 4, !tbaa !11
  %98 = sext i32 %97 to i64
  %99 = getelementptr inbounds [64 x ptr], ptr %96, i64 0, i64 %98
  call void @av_freep(ptr noundef %99)
  br label %100

100:                                              ; preds = %78, %67
  br label %101

101:                                              ; preds = %100
  %102 = load i32, ptr %11, align 4, !tbaa !11
  %103 = add nsw i32 %102, 1
  store i32 %103, ptr %11, align 4, !tbaa !11
  br label %63, !llvm.loop !180

104:                                              ; preds = %66
  br label %105

105:                                              ; preds = %104
  %106 = load i32, ptr %10, align 4, !tbaa !11
  %107 = add nsw i32 %106, 1
  store i32 %107, ptr %10, align 4, !tbaa !11
  br label %57, !llvm.loop !181

108:                                              ; preds = %61
  %109 = load ptr, ptr %3, align 8, !tbaa !4
  %110 = getelementptr inbounds nuw %struct.AACDecContext, ptr %109, i32 0, i32 14
  call void @av_tx_uninit(ptr noundef %110)
  %111 = load ptr, ptr %3, align 8, !tbaa !4
  %112 = getelementptr inbounds nuw %struct.AACDecContext, ptr %111, i32 0, i32 15
  call void @av_tx_uninit(ptr noundef %112)
  %113 = load ptr, ptr %3, align 8, !tbaa !4
  %114 = getelementptr inbounds nuw %struct.AACDecContext, ptr %113, i32 0, i32 16
  call void @av_tx_uninit(ptr noundef %114)
  %115 = load ptr, ptr %3, align 8, !tbaa !4
  %116 = getelementptr inbounds nuw %struct.AACDecContext, ptr %115, i32 0, i32 17
  call void @av_tx_uninit(ptr noundef %116)
  %117 = load ptr, ptr %3, align 8, !tbaa !4
  %118 = getelementptr inbounds nuw %struct.AACDecContext, ptr %117, i32 0, i32 18
  call void @av_tx_uninit(ptr noundef %118)
  %119 = load ptr, ptr %3, align 8, !tbaa !4
  %120 = getelementptr inbounds nuw %struct.AACDecContext, ptr %119, i32 0, i32 19
  call void @av_tx_uninit(ptr noundef %120)
  %121 = load ptr, ptr %3, align 8, !tbaa !4
  %122 = getelementptr inbounds nuw %struct.AACDecContext, ptr %121, i32 0, i32 20
  call void @av_tx_uninit(ptr noundef %122)
  %123 = load ptr, ptr %3, align 8, !tbaa !4
  %124 = getelementptr inbounds nuw %struct.AACDecContext, ptr %123, i32 0, i32 21
  call void @av_tx_uninit(ptr noundef %124)
  %125 = load ptr, ptr %3, align 8, !tbaa !4
  %126 = getelementptr inbounds nuw %struct.AACDecContext, ptr %125, i32 0, i32 22
  call void @av_tx_uninit(ptr noundef %126)
  %127 = load ptr, ptr %3, align 8, !tbaa !4
  %128 = getelementptr inbounds nuw %struct.AACDecContext, ptr %127, i32 0, i32 44
  %129 = load i32, ptr %128, align 4, !tbaa !105
  %130 = icmp ne i32 %129, 0
  br i1 %130, label %131, label %134

131:                                              ; preds = %108
  %132 = load ptr, ptr %3, align 8, !tbaa !4
  %133 = getelementptr inbounds nuw %struct.AACDecContext, ptr %132, i32 0, i32 32
  call void @av_freep(ptr noundef %133)
  br label %137

134:                                              ; preds = %108
  %135 = load ptr, ptr %3, align 8, !tbaa !4
  %136 = getelementptr inbounds nuw %struct.AACDecContext, ptr %135, i32 0, i32 32
  call void @av_freep(ptr noundef %136)
  br label %137

137:                                              ; preds = %134, %131
  store i32 1, ptr %5, align 4
  call void @llvm.lifetime.end.p0(i64 8, ptr %3) #12
  ret i32 0
}