; Function Attrs: cold nounwind optsize uwtable
define internal noundef i32 @decode_close(ptr noundef readonly captures(none) %0) #5 {
  %2 = getelementptr inbounds nuw i8, ptr %0, i64 32
  %3 = load ptr, ptr %2, align 8, !tbaa !51
  %4 = getelementptr inbounds nuw i8, ptr %3, i64 10080
  br label %7

.preheader45:                                     ; preds = %._crit_edge
  %5 = getelementptr inbounds nuw i8, ptr %3, i64 672
  %6 = getelementptr inbounds nuw i8, ptr %3, i64 176
  br label %.preheader

7:                                                ; preds = %1, %._crit_edge
  %8 = phi i1 [ true, %1 ], [ false, %._crit_edge ]
  %indvars.iv51 = phi i64 [ 0, %1 ], [ 1, %._crit_edge ]
  %9 = getelementptr inbounds nuw [2 x %struct.OutputConfiguration], ptr %4, i64 0, i64 %indvars.iv51
  %10 = getelementptr inbounds nuw i8, ptr %9, i64 4960
  %11 = load i32, ptr %10, align 8, !tbaa !161
  %12 = icmp sgt i32 %11, 0
  br i1 %12, label %.lr.ph, label %._crit_edge

.lr.ph:                                           ; preds = %7
  %invariant.gep = getelementptr i8, ptr %9, i64 920
  br label %14

._crit_edge:                                      ; preds = %14, %7
  %13 = getelementptr inbounds nuw i8, ptr %9, i64 824
  tail call void @av_channel_layout_uninit(ptr noundef nonnull %13) #13
  br i1 %8, label %7, label %.preheader45, !llvm.loop !162

14:                                               ; preds = %.lr.ph, %14
  %indvars.iv = phi i64 [ 0, %.lr.ph ], [ %indvars.iv.next, %14 ]
  %.idx = shl nuw nsw i64 %indvars.iv, 6
  %gep = getelementptr i8, ptr %invariant.gep, i64 %.idx
  tail call void @av_freep(ptr noundef nonnull %gep) #13
  %indvars.iv.next = add nuw nsw i64 %indvars.iv, 1
  %15 = load i32, ptr %10, align 8, !tbaa !161
  %16 = sext i32 %15 to i64
  %17 = icmp slt i64 %indvars.iv.next, %16
  br i1 %17, label %14, label %._crit_edge, !llvm.loop !163

.preheader:                                       ; preds = %.preheader45, %29
  %indvars.iv57 = phi i64 [ 0, %.preheader45 ], [ %indvars.iv.next58, %29 ]
  br label %30

18:                                               ; preds = %29
  %19 = getelementptr inbounds nuw i8, ptr %3, i64 9392
  tail call void @av_tx_uninit(ptr noundef nonnull %19) #13
  %20 = getelementptr inbounds nuw i8, ptr %3, i64 9400
  tail call void @av_tx_uninit(ptr noundef nonnull %20) #13
  %21 = getelementptr inbounds nuw i8, ptr %3, i64 9408
  tail call void @av_tx_uninit(ptr noundef nonnull %21) #13
  %22 = getelementptr inbounds nuw i8, ptr %3, i64 9416
  tail call void @av_tx_uninit(ptr noundef nonnull %22) #13
  %23 = getelementptr inbounds nuw i8, ptr %3, i64 9424
  tail call void @av_tx_uninit(ptr noundef nonnull %23) #13
  %24 = getelementptr inbounds nuw i8, ptr %3, i64 9432
  tail call void @av_tx_uninit(ptr noundef nonnull %24) #13
  %25 = getelementptr inbounds nuw i8, ptr %3, i64 9440
  tail call void @av_tx_uninit(ptr noundef nonnull %25) #13
  %26 = getelementptr inbounds nuw i8, ptr %3, i64 9448
  tail call void @av_tx_uninit(ptr noundef nonnull %26) #13
  %27 = getelementptr inbounds nuw i8, ptr %3, i64 9456
  tail call void @av_tx_uninit(ptr noundef nonnull %27) #13
  %28 = getelementptr inbounds nuw i8, ptr %3, i64 9536
  tail call void @av_freep(ptr noundef nonnull %28) #13
  ret i32 0

29:                                               ; preds = %35
  %indvars.iv.next58 = add nuw nsw i64 %indvars.iv57, 1
  %exitcond60.not = icmp eq i64 %indvars.iv.next58, 4
  br i1 %exitcond60.not, label %18, label %.preheader, !llvm.loop !164

30:                                               ; preds = %.preheader, %35
  %indvars.iv54 = phi i64 [ 0, %.preheader ], [ %indvars.iv.next55, %35 ]
  %31 = getelementptr inbounds nuw [4 x [64 x ptr]], ptr %5, i64 0, i64 %indvars.iv57, i64 %indvars.iv54
  %32 = load ptr, ptr %31, align 8, !tbaa !44
  %.not44 = icmp eq ptr %32, null
  br i1 %.not44, label %35, label %33

33:                                               ; preds = %30
  %34 = load ptr, ptr %6, align 8, !tbaa !82
  tail call void %34(ptr noundef nonnull %32) #13
  tail call void @av_freep(ptr noundef nonnull %31) #13
  br label %35

35:                                               ; preds = %30, %33
  %indvars.iv.next55 = add nuw nsw i64 %indvars.iv54, 1
  %exitcond.not = icmp eq i64 %indvars.iv.next55, 64
  br i1 %exitcond.not, label %29, label %30, !llvm.loop !165
}